; Function Attrs: mustprogress nounwind uwtable
define internal fastcc void @_ZNSt10unique_ptrIN9grpc_core12_GLOBAL__N_110PriorityLb13ChildPriority17DeactivationTimerENS0_16OrphanableDeleteEED2Ev(ptr nocapture noundef nonnull align 8 dereferenceable(8) %this) unnamed_addr #10 align 2 personality ptr @__gxx_personality_v0 {
entry:
  %0 = load ptr, ptr %this, align 8
  %cmp.not = icmp eq ptr %0, null
  br i1 %cmp.not, label %if.end, label %if.then

if.then:                                          ; preds = %entry
  %vtable.i = load ptr, ptr %0, align 8
  %1 = load ptr, ptr %vtable.i, align 8
  invoke void %1(ptr noundef nonnull align 8 dereferenceable(48) %0)
          to label %if.end unwind label %terminate.lpad

if.end:                                           ; preds = %if.then, %entry
  store ptr null, ptr %this, align 8
  ret void

terminate.lpad:                                   ; preds = %if.then
  %2 = landingpad { ptr, i32 }
          catch ptr null
  %3 = extractvalue { ptr, i32 } %2, 0
  tail call void @__clang_call_terminate(ptr %3) #27
  unreachable
}